; Function Attrs: uwtable
define hidden void @_ZThn16_NK4cvc58internal6theory9datatypes14InferProofCons8identifyB5cxx11Ev(ptr noalias sret(%"class.std::__cxx11::basic_string") align 8 %agg.result, ptr nocapture readnone %this) unnamed_addr #8 align 2 personality ptr @__gxx_personality_v0 {
entry:
  %ref.tmp.i = alloca %"class.std::allocator.39", align 1
  call void @llvm.lifetime.start.p0(i64 1, ptr nonnull %ref.tmp.i)
  call void @_ZNSaIcEC1Ev(ptr noundef nonnull align 1 dereferenceable(1) %ref.tmp.i) #18, !noalias !136
  %call.i1.i = invoke noundef ptr @_ZNSt7__cxx1112basic_stringIcSt11char_traitsIcESaIcEE13_M_local_dataEv(ptr noundef nonnull align 8 dereferenceable(32) %agg.result)
          to label %call.i.noexc.i unwind label %lpad.i

call.i.noexc.i:                                   ; preds = %entry
  invoke void @_ZNSt7__cxx1112basic_stringIcSt11char_traitsIcESaIcEE12_Alloc_hiderC1EPcRKS3_(ptr noundef nonnull align 8 dereferenceable(8) %agg.result, ptr noundef %call.i1.i, ptr noundef nonnull align 1 dereferenceable(1) %ref.tmp.i)
          to label %.noexc.i unwind label %lpad.i

.noexc.i:                                         ; preds = %call.i.noexc.i
  invoke void @_ZNSt7__cxx1112basic_stringIcSt11char_traitsIcESaIcEE12_M_constructIPKcEEvT_S8_St20forward_iterator_tag(ptr noundef nonnull align 8 dereferenceable(32) %agg.result, ptr noundef nonnull @.str.12, ptr noundef nonnull getelementptr inbounds ([26 x i8], ptr @.str.12, i64 0, i64 25))
          to label %_ZNK4cvc58internal6theory9datatypes14InferProofCons8identifyB5cxx11Ev.exit unwind label %lpad.i.i

lpad.i.i:                                         ; preds = %.noexc.i
  %0 = landingpad { ptr, i32 }
          cleanup
  call void @_ZNSaIcED2Ev(ptr noundef nonnull align 1 dereferenceable(1) %agg.result) #18
  br label %lpad.body.i

lpad.i:                                           ; preds = %call.i.noexc.i, %entry
  %1 = landingpad { ptr, i32 }
          cleanup
  br label %lpad.body.i

lpad.body.i:                                      ; preds = %lpad.i, %lpad.i.i
  %eh.lpad-body.i = phi { ptr, i32 } [ %1, %lpad.i ], [ %0, %lpad.i.i ]
  call void @_ZNSaIcED1Ev(ptr noundef nonnull align 1 dereferenceable(1) %ref.tmp.i) #18
  resume { ptr, i32 } %eh.lpad-body.i

_ZNK4cvc58internal6theory9datatypes14InferProofCons8identifyB5cxx11Ev.exit: ; preds = %.noexc.i
  call void @_ZNSaIcED1Ev(ptr noundef nonnull align 1 dereferenceable(1) %ref.tmp.i) #18
  call void @llvm.lifetime.end.p0(i64 1, ptr nonnull %ref.tmp.i)
  ret void
}